target datalayout = "e-m:e-p270:32:32-p271:32:32-p272:64:64-i64:64-i128:128-f80:128-n8:16:32:64-S128"
target triple = "x86_64-unknown-linux-gnu"

%"class.node::MemoryRetainer" = type { ptr }
%"struct.node::crypto::RandomBytesConfig" = type { %"class.node::MemoryRetainer", ptr, i64 }
%"struct.node::crypto::CSPRNGResult" = type { i8 }

; Function Attrs: mustprogress nounwind uwtable
define linkonce_odr dso_local noundef zeroext i1 @_ZNK4node6crypto12CSPRNGResult5is_okEv(ptr noundef nonnull align 1 dereferenceable(1) %this) #4 comdat align 2 {
entry:
  %this.addr = alloca ptr, align 8
  store ptr %this, ptr %this.addr, align 8
  %this1 = load ptr, ptr %this.addr, align 8
  %ok = getelementptr inbounds %"struct.node::crypto::CSPRNGResult", ptr %this1, i32 0, i32 0
  %0 = load i8, ptr %ok, align 1
  %tobool = trunc i8 %0 to i1
  ret i1 %tobool
}

; Function Attrs: mustprogress nounwind uwtable
define dso_local noundef zeroext i1 @_ZN4node6crypto17RandomBytesTraits10DeriveBitsEPNS_11EnvironmentERKNS0_17RandomBytesConfigEPNS0_10ByteSourceE(ptr noundef %env, ptr noundef nonnull align 8 dereferenceable(24) %params, ptr noundef %unused) #4 align 2 {
entry:
  %env.addr = alloca ptr, align 8
  %params.addr = alloca ptr, align 8
  %unused.addr = alloca ptr, align 8
  %ref.tmp = alloca %"struct.node::crypto::CSPRNGResult", align 1
  store ptr %env, ptr %env.addr, align 8
  store ptr %params, ptr %params.addr, align 8
  store ptr %unused, ptr %unused.addr, align 8
  %0 = load ptr, ptr %params.addr, align 8
  %buffer = getelementptr inbounds %"struct.node::crypto::RandomBytesConfig", ptr %0, i32 0, i32 1
  %1 = load ptr, ptr %buffer, align 8
  %2 = load ptr, ptr %params.addr, align 8
  %size = getelementptr inbounds %"struct.node::crypto::RandomBytesConfig", ptr %2, i32 0, i32 2
  %3 = load i64, ptr %size, align 8
  %call = call i8 @_ZN4node6crypto6CSPRNGEPvm(ptr noundef %1, i64 noundef %3)
  %coerce.dive = getelementptr inbounds %"struct.node::crypto::CSPRNGResult", ptr %ref.tmp, i32 0, i32 0
  store i8 %call, ptr %coerce.dive, align 1
  %call1 = call noundef zeroext i1 @_ZNK4node6crypto12CSPRNGResult5is_okEv(ptr noundef nonnull align 1 dereferenceable(1) %ref.tmp)
  ret i1 %call1
}