; Function Attrs: mustprogress nounwind uwtable
define dso_local noundef zeroext i1 @_ZN4node6crypto17RandomBytesTraits10DeriveBitsEPNS_11EnvironmentERKNS0_17RandomBytesConfigEPNS0_10ByteSourceE(ptr nocapture noundef readnone %env, ptr nocapture noundef nonnull readonly align 8 dereferenceable(24) %params, ptr nocapture noundef readnone %unused) local_unnamed_addr #5 align 2 {
entry:
  %buffer = getelementptr inbounds i8, ptr %params, i64 8
  %0 = load ptr, ptr %buffer, align 8
  %size = getelementptr inbounds i8, ptr %params, i64 16
  %1 = load i64, ptr %size, align 8
  %call = tail call i8 @_ZN4node6crypto6CSPRNGEPvm(ptr noundef %0, i64 noundef %1) #17
  %2 = and i8 %call, 1
  %tobool.i = icmp ne i8 %2, 0
  ret i1 %tobool.i
}